; Function Attrs: mustprogress uwtable
define internal void @_ZN12_GLOBAL__N_121DOCTEST_ANON_FUNC_151Ev() #5 personality ptr @__gxx_personality_v0 {
  %1 = alloca %"struct.(anonymous namespace)::DOCTEST_ANON_CLASS_150", align 8
  call void @_ZN4Luau15BuiltinsFixtureC2Ebb(ptr noundef nonnull align 8 dereferenceable(2232) %1, i1 noundef zeroext true, i1 noundef zeroext false)
  invoke fastcc void @_ZN12_GLOBAL__N_122DOCTEST_ANON_CLASS_1501fEv(ptr noundef nonnull align 8 dereferenceable(2232) %1)
          to label %2 unwind label %3

2:                                                ; preds = %0
  call void @_ZN4Luau7FixtureD2Ev(ptr noundef nonnull align 8 dereferenceable(2232) %1) #22
  ret void

3:                                                ; preds = %0
  %4 = landingpad { ptr, i32 }
          cleanup
  call void @_ZN4Luau7FixtureD2Ev(ptr noundef nonnull align 8 dereferenceable(2232) %1) #22
  resume { ptr, i32 } %4
}